target datalayout = "e-m:e-p270:32:32-p271:32:32-p272:64:64-i64:64-i128:128-f80:128-n8:16:32:64-S128"
target triple = "x86_64-pc-linux-gnu"

%"class.ceres::LossFunction" = type { ptr }
%"class.ceres::TukeyLoss" = type { %"class.ceres::LossFunction", double }

; Function Attrs: mustprogress nounwind uwtable
define hidden void @_ZNK5ceres9TukeyLoss8EvaluateEdPd(ptr noundef nonnull align 8 dereferenceable(16) %0, double noundef %1, ptr noundef %2) unnamed_addr #0 align 2 {
  %4 = alloca ptr, align 8
  %5 = alloca double, align 8
  %6 = alloca ptr, align 8
  %7 = alloca double, align 8
  %8 = alloca double, align 8
  store ptr %0, ptr %4, align 8, !tbaa !53
  store double %1, ptr %5, align 8, !tbaa !10
  store ptr %2, ptr %6, align 8, !tbaa !12
  %9 = load ptr, ptr %4, align 8
  %10 = load double, ptr %5, align 8, !tbaa !10
  %11 = getelementptr inbounds nuw %"class.ceres::TukeyLoss", ptr %9, i32 0, i32 1
  %12 = load double, ptr %11, align 8, !tbaa !55
  %13 = fcmp ole double %10, %12
  br i1 %13, label %14, label %43

14:                                               ; preds = %3
  call void @llvm.lifetime.start.p0(i64 8, ptr %7) #15
  %15 = load double, ptr %5, align 8, !tbaa !10
  %16 = getelementptr inbounds nuw %"class.ceres::TukeyLoss", ptr %9, i32 0, i32 1
  %17 = load double, ptr %16, align 8, !tbaa !55
  %18 = fdiv double %15, %17
  %19 = fsub double 1.000000e+00, %18
  store double %19, ptr %7, align 8, !tbaa !10
  call void @llvm.lifetime.start.p0(i64 8, ptr %8) #15
  %20 = load double, ptr %7, align 8, !tbaa !10
  %21 = load double, ptr %7, align 8, !tbaa !10
  %22 = fmul double %20, %21
  store double %22, ptr %8, align 8, !tbaa !10
  %23 = getelementptr inbounds nuw %"class.ceres::TukeyLoss", ptr %9, i32 0, i32 1
  %24 = load double, ptr %23, align 8, !tbaa !55
  %25 = fdiv double %24, 3.000000e+00
  %26 = load double, ptr %8, align 8, !tbaa !10
  %27 = load double, ptr %7, align 8, !tbaa !10
  %28 = fneg double %26
  %29 = call double @llvm.fmuladd.f64(double %28, double %27, double 1.000000e+00)
  %30 = fmul double %25, %29
  %31 = load ptr, ptr %6, align 8, !tbaa !12
  %32 = getelementptr inbounds double, ptr %31, i64 0
  store double %30, ptr %32, align 8, !tbaa !10
  %33 = load double, ptr %8, align 8, !tbaa !10
  %34 = load ptr, ptr %6, align 8, !tbaa !12
  %35 = getelementptr inbounds double, ptr %34, i64 1
  store double %33, ptr %35, align 8, !tbaa !10
  %36 = getelementptr inbounds nuw %"class.ceres::TukeyLoss", ptr %9, i32 0, i32 1
  %37 = load double, ptr %36, align 8, !tbaa !55
  %38 = fdiv double -2.000000e+00, %37
  %39 = load double, ptr %7, align 8, !tbaa !10
  %40 = fmul double %38, %39
  %41 = load ptr, ptr %6, align 8, !tbaa !12
  %42 = getelementptr inbounds double, ptr %41, i64 2
  store double %40, ptr %42, align 8, !tbaa !10
  call void @llvm.lifetime.end.p0(i64 8, ptr %8) #15
  call void @llvm.lifetime.end.p0(i64 8, ptr %7) #15
  br label %53

43:                                               ; preds = %3
  %44 = getelementptr inbounds nuw %"class.ceres::TukeyLoss", ptr %9, i32 0, i32 1
  %45 = load double, ptr %44, align 8, !tbaa !55
  %46 = fdiv double %45, 3.000000e+00
  %47 = load ptr, ptr %6, align 8, !tbaa !12
  %48 = getelementptr inbounds double, ptr %47, i64 0
  store double %46, ptr %48, align 8, !tbaa !10
  %49 = load ptr, ptr %6, align 8, !tbaa !12
  %50 = getelementptr inbounds double, ptr %49, i64 1
  store double 0.000000e+00, ptr %50, align 8, !tbaa !10
  %51 = load ptr, ptr %6, align 8, !tbaa !12
  %52 = getelementptr inbounds double, ptr %51, i64 2
  store double 0.000000e+00, ptr %52, align 8, !tbaa !10
  br label %53

53:                                               ; preds = %43, %14
  ret void
}