; Function Attrs: mustprogress nofree norecurse nosync nounwind willreturn memory(argmem: readwrite) uwtable
define hidden void @_ZNK5ceres9TukeyLoss8EvaluateEdPd(ptr noundef nonnull readonly align 8 captures(none) dereferenceable(16) %0, double noundef %1, ptr noundef writeonly captures(none) initializes((0, 24)) %2) unnamed_addr #10 align 2 {
  %4 = getelementptr inbounds nuw i8, ptr %0, i64 8
  %5 = load double, ptr %4, align 8, !tbaa !37
  %6 = fcmp ugt double %1, %5
  br i1 %6, label %19, label %7

7:                                                ; preds = %3
  %8 = fdiv double %1, %5
  %9 = fsub double 1.000000e+00, %8
  %10 = fmul double %9, %9
  %11 = fdiv double %5, 3.000000e+00
  %12 = fneg double %10
  %13 = tail call double @llvm.fmuladd.f64(double %12, double %9, double 1.000000e+00)
  %14 = fmul double %11, %13
  store double %14, ptr %2, align 8, !tbaa !3
  %15 = getelementptr inbounds nuw i8, ptr %2, i64 8
  store double %10, ptr %15, align 8, !tbaa !3
  %16 = load double, ptr %4, align 8, !tbaa !37
  %17 = fdiv double -2.000000e+00, %16
  %18 = fmul double %9, %17
  br label %22

19:                                               ; preds = %3
  %20 = fdiv double %5, 3.000000e+00
  store double %20, ptr %2, align 8, !tbaa !3
  %21 = getelementptr inbounds nuw i8, ptr %2, i64 8
  store double 0.000000e+00, ptr %21, align 8, !tbaa !3
  br label %22

22:                                               ; preds = %19, %7
  %.sink = phi double [ 0.000000e+00, %19 ], [ %18, %7 ]
  %23 = getelementptr inbounds nuw i8, ptr %2, i64 16
  store double %.sink, ptr %23, align 8, !tbaa !3
  ret void
}